target datalayout = "e-m:e-p270:32:32-p271:32:32-p272:64:64-i64:64-i128:128-f80:128-n8:16:32:64-S128"
target triple = "x86_64-pc-linux-gnu"

%struct.H5VL_connector_prop_t = type { ptr, ptr }
%struct.H5CX_node_t = type { %struct.H5CX_t, ptr }
%struct.H5CX_t = type { i64, ptr, i64, ptr, i64, ptr, i64, ptr, i64, ptr, i64, ptr, i64, i32, i64, i8, ptr, i8, ptr, i8, i32, i8, [3 x double], i8, i64, i8, i32, i8, %struct.H5Z_cb_t, i8, ptr, i8, %struct.H5T_vlen_alloc_info_t, i8, %struct.H5T_conv_cb_t, i8, i32, i8, i8, i8, i32, i8, i8, i32, i8, i8, i32, i8, i32, i8, i64, i8, i8, i8, i8, i8, ptr, i8, ptr, i8, i32, i8, i32, i8, %struct.H5VL_connector_prop_t, i8, ptr, i8 }
%struct.H5Z_cb_t = type { ptr, ptr }
%struct.H5T_vlen_alloc_info_t = type { ptr, ptr, ptr, ptr }
%struct.H5T_conv_cb_t = type { ptr, ptr }

@H5P_CLS_FILE_ACCESS_ID_g = external global i64, align 8
@H5P_init_g = external global i8, align 1
@H5_libterm_g = external global i8, align 1
@.str.2 = private unnamed_addr constant [101 x i8] c"generated/home/dtcxzyw/WorkSpace/Projects/compilers/llvm-opt-benchmark/bench/hdf5/hdf5/src/H5Pfapl.c\00", align 1
@H5E_CANTGET_g = external global i64, align 8
@H5E_BADID_g = external global i64, align 8
@H5E_CANTSET_g = external global i64, align 8
@H5E_PLIST_g = external global i64, align 8
@H5_libinit_g = external global i8, align 1
@H5E_FUNC_g = external global i64, align 8
@H5E_CANTINIT_g = external global i64, align 8
@.str.15 = private unnamed_addr constant [30 x i8] c"library initialization failed\00", align 1
@.str.16 = private unnamed_addr constant [32 x i8] c"interface initialization failed\00", align 1
@.str.17 = private unnamed_addr constant [22 x i8] c"can't set API context\00", align 1
@H5E_ARGS_g = external global i64, align 8
@H5E_BADVALUE_g = external global i64, align 8
@H5E_ID_g = external global i64, align 8
@.str.19 = private unnamed_addr constant [25 x i8] c"can't find object for ID\00", align 1
@.str.41 = private unnamed_addr constant [35 x i8] c"can't modify default property list\00", align 1
@.str.44 = private unnamed_addr constant [11 x i8] c"multi_type\00", align 1
@__func__.H5Pget_multi_type = private unnamed_addr constant [18 x i8] c"H5Pget_multi_type\00", align 1
@.str.46 = private unnamed_addr constant [32 x i8] c"can't get type for multi driver\00", align 1

; Function Attrs: nounwind uwtable
define i32 @H5Pget_multi_type(i64 noundef %0, ptr noundef %1) #0 {
  %3 = alloca i64, align 8
  %4 = alloca ptr, align 8
  %5 = alloca ptr, align 8
  %6 = alloca i32, align 4
  %7 = alloca %struct.H5CX_node_t, align 8
  %8 = alloca i8, align 1
  %9 = alloca i8, align 1
  store i64 %0, ptr %3, align 8, !tbaa !8
  store ptr %1, ptr %4, align 8, !tbaa !32
  call void @llvm.lifetime.start.p0(i64 8, ptr %5) #10
  call void @llvm.lifetime.start.p0(i64 4, ptr %6) #10
  store i32 0, ptr %6, align 4, !tbaa !20
  call void @llvm.lifetime.start.p0(i64 480, ptr %7) #10
  call void @llvm.memset.p0.i64(ptr align 8 %7, i8 0, i64 480, i1 false)
  call void @llvm.lifetime.start.p0(i64 1, ptr %8) #10
  store i8 0, ptr %8, align 1, !tbaa !22
  call void @llvm.lifetime.start.p0(i64 1, ptr %9) #10
  store i8 0, ptr %9, align 1, !tbaa !22
  br label %10

10:                                               ; preds = %2
  %11 = load i8, ptr @H5_libinit_g, align 1, !tbaa !22, !range !24, !noundef !25
  %12 = trunc i8 %11 to i1
  br i1 %12, label %17, label %13

13:                                               ; preds = %10
  %14 = load i8, ptr @H5_libterm_g, align 1, !tbaa !22, !range !24, !noundef !25
  %15 = trunc i8 %14 to i1
  %16 = xor i1 %15, true
  br label %17

17:                                               ; preds = %13, %10
  %18 = phi i1 [ false, %10 ], [ %16, %13 ]
  %19 = xor i1 %18, true
  %20 = xor i1 %19, true
  %21 = zext i1 %20 to i32
  %22 = sext i32 %21 to i64
  %23 = call i64 @llvm.expect.i64(i64 %22, i64 0)
  %24 = icmp ne i64 %23, 0
  br i1 %24, label %25, label %54

25:                                               ; preds = %17
  %26 = call i32 @H5_init_library()
  %27 = icmp slt i32 %26, 0
  %28 = xor i1 %27, true
  %29 = xor i1 %28, true
  %30 = zext i1 %29 to i32
  %31 = sext i32 %30 to i64
  %32 = call i64 @llvm.expect.i64(i64 %31, i64 0)
  %33 = icmp ne i64 %32, 0
  br i1 %33, label %34, label %53

34:                                               ; preds = %25
  br label %35

35:                                               ; preds = %34
  br label %36

36:                                               ; preds = %35
  br label %37

37:                                               ; preds = %36
  %38 = load i64, ptr @H5E_FUNC_g, align 8, !tbaa !8
  %39 = load i64, ptr @H5E_CANTINIT_g, align 8, !tbaa !8
  %40 = call i32 (ptr, ptr, i32, i64, i64, ptr, ...) @H5E_printf_stack(ptr noundef @.str.2, ptr noundef @__func__.H5Pget_multi_type, i32 noundef 2102, i64 noundef %38, i64 noundef %39, ptr noundef @.str.15)
  br label %41

41:                                               ; preds = %37
  br label %42

42:                                               ; preds = %41
  store i8 1, ptr %9, align 1, !tbaa !22
  %43 = load i8, ptr %9, align 1, !tbaa !22, !range !24, !noundef !25
  %44 = trunc i8 %43 to i1
  %45 = zext i1 %44 to i8
  store i8 %45, ptr %9, align 1, !tbaa !22
  br label %46

46:                                               ; preds = %42
  br label %47

47:                                               ; preds = %46
  br label %48

48:                                               ; preds = %47
  store i32 -1, ptr %6, align 4, !tbaa !20
  br label %202

49:                                               ; No predecessors!
  br label %50

50:                                               ; preds = %49
  br label %51

51:                                               ; preds = %50
  br label %52

52:                                               ; preds = %51
  br label %53

53:                                               ; preds = %52, %25
  br label %54

54:                                               ; preds = %53, %17
  %55 = load i8, ptr @H5P_init_g, align 1, !tbaa !22, !range !24, !noundef !25
  %56 = trunc i8 %55 to i1
  br i1 %56, label %61, label %57

57:                                               ; preds = %54
  %58 = load i8, ptr @H5_libterm_g, align 1, !tbaa !22, !range !24, !noundef !25
  %59 = trunc i8 %58 to i1
  %60 = xor i1 %59, true
  br label %61

61:                                               ; preds = %57, %54
  %62 = phi i1 [ false, %54 ], [ %60, %57 ]
  %63 = xor i1 %62, true
  %64 = xor i1 %63, true
  %65 = zext i1 %64 to i32
  %66 = sext i32 %65 to i64
  %67 = call i64 @llvm.expect.i64(i64 %66, i64 0)
  %68 = icmp ne i64 %67, 0
  br i1 %68, label %69, label %92

69:                                               ; preds = %61
  store i8 1, ptr @H5P_init_g, align 1, !tbaa !22
  %70 = call i32 @H5P__init_package()
  %71 = icmp slt i32 %70, 0
  br i1 %71, label %72, label %91

72:                                               ; preds = %69
  store i8 0, ptr @H5P_init_g, align 1, !tbaa !22
  br label %73

73:                                               ; preds = %72
  br label %74

74:                                               ; preds = %73
  br label %75

75:                                               ; preds = %74
  %76 = load i64, ptr @H5E_FUNC_g, align 8, !tbaa !8
  %77 = load i64, ptr @H5E_CANTINIT_g, align 8, !tbaa !8
  %78 = call i32 (ptr, ptr, i32, i64, i64, ptr, ...) @H5E_printf_stack(ptr noundef @.str.2, ptr noundef @__func__.H5Pget_multi_type, i32 noundef 2102, i64 noundef %76, i64 noundef %77, ptr noundef @.str.16)
  br label %79

79:                                               ; preds = %75
  br label %80

80:                                               ; preds = %79
  store i8 1, ptr %9, align 1, !tbaa !22
  %81 = load i8, ptr %9, align 1, !tbaa !22, !range !24, !noundef !25
  %82 = trunc i8 %81 to i1
  %83 = zext i1 %82 to i8
  store i8 %83, ptr %9, align 1, !tbaa !22
  br label %84

84:                                               ; preds = %80
  br label %85

85:                                               ; preds = %84
  br label %86

86:                                               ; preds = %85
  store i32 -1, ptr %6, align 4, !tbaa !20
  br label %202

87:                                               ; No predecessors!
  br label %88

88:                                               ; preds = %87
  br label %89

89:                                               ; preds = %88
  br label %90

90:                                               ; preds = %89
  br label %91

91:                                               ; preds = %90, %69
  br label %92

92:                                               ; preds = %91, %61
  br label %93

93:                                               ; preds = %92
  br label %94

94:                                               ; preds = %93
  br label %95

95:                                               ; preds = %94
  %96 = call i32 @H5CX_push(ptr noundef %7)
  %97 = icmp slt i32 %96, 0
  %98 = xor i1 %97, true
  %99 = xor i1 %98, true
  %100 = zext i1 %99 to i32
  %101 = sext i32 %100 to i64
  %102 = call i64 @llvm.expect.i64(i64 %101, i64 0)
  %103 = icmp ne i64 %102, 0
  br i1 %103, label %104, label %123

104:                                              ; preds = %95
  br label %105

105:                                              ; preds = %104
  br label %106

106:                                              ; preds = %105
  br label %107

107:                                              ; preds = %106
  %108 = load i64, ptr @H5E_FUNC_g, align 8, !tbaa !8
  %109 = load i64, ptr @H5E_CANTSET_g, align 8, !tbaa !8
  %110 = call i32 (ptr, ptr, i32, i64, i64, ptr, ...) @H5E_printf_stack(ptr noundef @.str.2, ptr noundef @__func__.H5Pget_multi_type, i32 noundef 2102, i64 noundef %108, i64 noundef %109, ptr noundef @.str.17)
  br label %111

111:                                              ; preds = %107
  br label %112

112:                                              ; preds = %111
  store i8 1, ptr %9, align 1, !tbaa !22
  %113 = load i8, ptr %9, align 1, !tbaa !22, !range !24, !noundef !25
  %114 = trunc i8 %113 to i1
  %115 = zext i1 %114 to i8
  store i8 %115, ptr %9, align 1, !tbaa !22
  br label %116

116:                                              ; preds = %112
  br label %117

117:                                              ; preds = %116
  br label %118

118:                                              ; preds = %117
  store i32 -1, ptr %6, align 4, !tbaa !20
  br label %202

119:                                              ; No predecessors!
  br label %120

120:                                              ; preds = %119
  br label %121

121:                                              ; preds = %120
  br label %122

122:                                              ; preds = %121
  br label %124

123:                                              ; preds = %95
  store i8 1, ptr %8, align 1, !tbaa !22
  br label %124

124:                                              ; preds = %123, %122
  br label %125

125:                                              ; preds = %124
  br label %126

126:                                              ; preds = %125
  %127 = call i32 @H5E_clear_stack()
  %128 = load i64, ptr %3, align 8, !tbaa !8
  %129 = icmp eq i64 0, %128
  br i1 %129, label %130, label %149

130:                                              ; preds = %126
  br label %131

131:                                              ; preds = %130
  br label %132

132:                                              ; preds = %131
  br label %133

133:                                              ; preds = %132
  %134 = load i64, ptr @H5E_ARGS_g, align 8, !tbaa !8
  %135 = load i64, ptr @H5E_BADVALUE_g, align 8, !tbaa !8
  %136 = call i32 (ptr, ptr, i32, i64, i64, ptr, ...) @H5E_printf_stack(ptr noundef @.str.2, ptr noundef @__func__.H5Pget_multi_type, i32 noundef 2106, i64 noundef %134, i64 noundef %135, ptr noundef @.str.41)
  br label %137

137:                                              ; preds = %133
  br label %138

138:                                              ; preds = %137
  store i8 1, ptr %9, align 1, !tbaa !22
  %139 = load i8, ptr %9, align 1, !tbaa !22, !range !24, !noundef !25
  %140 = trunc i8 %139 to i1
  %141 = zext i1 %140 to i8
  store i8 %141, ptr %9, align 1, !tbaa !22
  br label %142

142:                                              ; preds = %138
  br label %143

143:                                              ; preds = %142
  br label %144

144:                                              ; preds = %143
  store i32 -1, ptr %6, align 4, !tbaa !20
  br label %202

145:                                              ; No predecessors!
  br label %146

146:                                              ; preds = %145
  br label %147

147:                                              ; preds = %146
  br label %148

148:                                              ; preds = %147
  br label %149

149:                                              ; preds = %148, %126
  %150 = load i64, ptr %3, align 8, !tbaa !8
  %151 = load i64, ptr @H5P_CLS_FILE_ACCESS_ID_g, align 8, !tbaa !8
  %152 = call ptr @H5P_object_verify(i64 noundef %150, i64 noundef %151, i1 noundef zeroext true)
  store ptr %152, ptr %5, align 8, !tbaa !28
  %153 = icmp eq ptr null, %152
  br i1 %153, label %154, label %173

154:                                              ; preds = %149
  br label %155

155:                                              ; preds = %154
  br label %156

156:                                              ; preds = %155
  br label %157

157:                                              ; preds = %156
  %158 = load i64, ptr @H5E_ID_g, align 8, !tbaa !8
  %159 = load i64, ptr @H5E_BADID_g, align 8, !tbaa !8
  %160 = call i32 (ptr, ptr, i32, i64, i64, ptr, ...) @H5E_printf_stack(ptr noundef @.str.2, ptr noundef @__func__.H5Pget_multi_type, i32 noundef 2108, i64 noundef %158, i64 noundef %159, ptr noundef @.str.19)
  br label %161

161:                                              ; preds = %157
  br label %162

162:                                              ; preds = %161
  store i8 1, ptr %9, align 1, !tbaa !22
  %163 = load i8, ptr %9, align 1, !tbaa !22, !range !24, !noundef !25
  %164 = trunc i8 %163 to i1
  %165 = zext i1 %164 to i8
  store i8 %165, ptr %9, align 1, !tbaa !22
  br label %166

166:                                              ; preds = %162
  br label %167

167:                                              ; preds = %166
  br label %168

168:                                              ; preds = %167
  store i32 -1, ptr %6, align 4, !tbaa !20
  br label %202

169:                                              ; No predecessors!
  br label %170

170:                                              ; preds = %169
  br label %171

171:                                              ; preds = %170
  br label %172

172:                                              ; preds = %171
  br label %173

173:                                              ; preds = %172, %149
  %174 = load ptr, ptr %4, align 8, !tbaa !32
  %175 = icmp ne ptr %174, null
  br i1 %175, label %176, label %201

176:                                              ; preds = %173
  %177 = load ptr, ptr %5, align 8, !tbaa !28
  %178 = load ptr, ptr %4, align 8, !tbaa !32
  %179 = call i32 @H5P_get(ptr noundef %177, ptr noundef @.str.44, ptr noundef %178)
  %180 = icmp slt i32 %179, 0
  br i1 %180, label %181, label %200

181:                                              ; preds = %176
  br label %182

182:                                              ; preds = %181
  br label %183

183:                                              ; preds = %182
  br label %184

184:                                              ; preds = %183
  %185 = load i64, ptr @H5E_PLIST_g, align 8, !tbaa !8
  %186 = load i64, ptr @H5E_CANTGET_g, align 8, !tbaa !8
  %187 = call i32 (ptr, ptr, i32, i64, i64, ptr, ...) @H5E_printf_stack(ptr noundef @.str.2, ptr noundef @__func__.H5Pget_multi_type, i32 noundef 2113, i64 noundef %185, i64 noundef %186, ptr noundef @.str.46)
  br label %188

188:                                              ; preds = %184
  br label %189

189:                                              ; preds = %188
  store i8 1, ptr %9, align 1, !tbaa !22
  %190 = load i8, ptr %9, align 1, !tbaa !22, !range !24, !noundef !25
  %191 = trunc i8 %190 to i1
  %192 = zext i1 %191 to i8
  store i8 %192, ptr %9, align 1, !tbaa !22
  br label %193

193:                                              ; preds = %189
  br label %194

194:                                              ; preds = %193
  br label %195

195:                                              ; preds = %194
  store i32 -1, ptr %6, align 4, !tbaa !20
  br label %202

196:                                              ; No predecessors!
  br label %197

197:                                              ; preds = %196
  br label %198

198:                                              ; preds = %197
  br label %199

199:                                              ; preds = %198
  br label %200

200:                                              ; preds = %199, %176
  br label %201

201:                                              ; preds = %200, %173
  br label %202

202:                                              ; preds = %201, %195, %168, %144, %118, %86, %48
  %203 = load i8, ptr %8, align 1, !tbaa !22, !range !24, !noundef !25
  %204 = trunc i8 %203 to i1
  %205 = xor i1 %204, true
  %206 = xor i1 %205, true
  %207 = zext i1 %206 to i32
  %208 = sext i32 %207 to i64
  %209 = call i64 @llvm.expect.i64(i64 %208, i64 1)
  %210 = icmp ne i64 %209, 0
  br i1 %210, label %211, label %213

211:                                              ; preds = %202
  %212 = call i32 @H5CX_pop(i1 noundef zeroext true)
  store i8 0, ptr %8, align 1, !tbaa !22
  br label %213

213:                                              ; preds = %211, %202
  %214 = load i8, ptr %9, align 1, !tbaa !22, !range !24, !noundef !25
  %215 = trunc i8 %214 to i1
  %216 = xor i1 %215, true
  %217 = xor i1 %216, true
  %218 = zext i1 %217 to i32
  %219 = sext i32 %218 to i64
  %220 = call i64 @llvm.expect.i64(i64 %219, i64 0)
  %221 = icmp ne i64 %220, 0
  br i1 %221, label %222, label %224

222:                                              ; preds = %213
  %223 = call i32 @H5E_dump_api_stack()
  br label %224

224:                                              ; preds = %222, %213
  %225 = load i32, ptr %6, align 4, !tbaa !20
  call void @llvm.lifetime.end.p0(i64 1, ptr %9) #10
  call void @llvm.lifetime.end.p0(i64 1, ptr %8) #10
  call void @llvm.lifetime.end.p0(i64 480, ptr %7) #10
  call void @llvm.lifetime.end.p0(i64 4, ptr %6) #10
  call void @llvm.lifetime.end.p0(i64 8, ptr %5) #10
  ret i32 %225
}